(dp0
S'011615'
p1
cnumpy.core.multiarray
_reconstruct
p2
(cnumpy
ndarray
p3
(I0
tp4
S'b'
p5
tp6
Rp7
(I1
(I126
tp8
cnumpy
dtype
p9
(S'S4'
p10
I0
I1
tp11
Rp12
(I3
S'|'
p13
NNNI4
I1
I0
tp14
bI00
S'149a26a\x00195a109a131a115a229a71a\x00241a41a\x0053a\x0037a\x00141a138a106a231a204a160a114a130a21a\x0054a\x0028a\x00146a224a232a252a194a248a193a72a\x0058a\x00228a133a64a\x00205a153a51a\x00216a100a90a\x00227a78a\x00143a3a\x00\x00148a189a59a\x00173a132a247a70a\x00238a52a\x00125a140a226a139a36a\x00254a83a\x0079a\x00206a230a107a218a159a22a\x00174a63a\x0056a\x00135a46a\x00110a120a235a151a251a199a221a102a96a\x0086a\x00219a25a\x0062a\x00122a134a57a\x00245a73a\x00150a211a103a142a220a97a\x00198a256a158a207a77a\x00117a127a61a\x0047a\x00136a80a\x0068a\x00212a104a128a223a197a23a\x0074a\x00147a60a\x00116a55a\x00111a129a105a234a119a222a'
p15
tp16
bsS'blocks'
p17
(lp18
S'abc'
p19
ag19
ag19
aS'abcd'
p20
asS'011315'
p21
g2
(g3
(I0
tp22
g5
tp23
Rp24
(I1
(I130
tp25
g9
(S'S4'
p26
I0
I1
tp27
Rp28
(I3
S'|'
p29
NNNI4
I1
I0
tp30
bI00
S'149a26a\x00195a109a131a115a57a\x0071a\x00241a41a\x0053a\x0037a\x00206a138a255a106a231a204a223a114a130a21a\x00178a137a54a\x0028a\x00146a224a232a252a194a248a38a\x00193a58a\x00228a142a153a51a\x00216a100a90a\x00227a78a\x00143a3a\x00\x00172a148a23a\x0059a\x00256a132a247a70a\x00238a52a\x00125a207a110a139a36a\x00254a83a\x0079a\x00141a230a107a218a159a22a\x00174a63a\x0056a\x0046a\x0072a\x00120a235a151a251a199a221a102a96a\x0086a\x00219a25a\x0062a\x00122a229a245a73a\x00150a211a103a205a220a97a\x00198a173a158a140a226a77a\x00117a127a61a\x00147a136a80a\x00176a68a\x00212a104a128a160a197a189a74a\x0047a\x0060a\x00116a243a55a\x00111a144a129a105a234a119a222a'
p31
tp32
bsS'days'
p33
(lp34
g21
aS'011415'
p35
aS'011515'
p36
ag1
asS'mc_indicator'
p37
(lp38
S'100'
p39
ag39
ag39
aS'1000'
p40
asg35
g2
(g3
(I0
tp41
g5
tp42
Rp43
(I1
(I130
tp44
g9
(S'S4'
p45
I0
I1
tp46
Rp47
(I3
S'|'
p48
NNNI4
I1
I0
tp49
bI00
S'149a26a\x00195a109a131a115a229a71a\x0041a\x0053a\x0037a\x00141a138a255a106a231a204a223a114a130a21a\x00178a137a54a\x0028a\x00146a224a232a252a194a107a38a\x00193a58a\x00228a133a64a\x00142a153a51a\x00216a100a90a\x00227a78a\x00143a3a\x00\x00172a148a23a\x0059a\x00256a132a247a70a\x00238a52a\x00125a207a72a\x00139a36a\x00254a83a\x0079a\x00206a230a248a218a159a22a\x00174a63a\x0056a\x0046a\x00110a120a235a151a251a199a221a102a96a\x0086a\x00219a25a\x0062a\x00122a57a\x00245a73a\x00150a211a103a205a220a97a\x00198a173a158a140a226a77a\x00117a127a61a\x00147a136a80a\x00176a68a\x00212a104a128a160a197a189a74a\x0047a\x0060a\x00116a55a\x00111a144a129a105a234a119a222a'
p50
tp51
bsg36
g2
(g3
(I0
tp52
g5
tp53
Rp54
(I1
(I127
tp55
g9
(S'S4'
p56
I0
I1
tp57
Rp58
(I3
S'|'
p59
NNNI4
I1
I0
tp60
bI00
S'149a26a\x00195a109a131a115a229a71a\x00241a41a\x0053a\x0037a\x00206a138a255a106a231a204a160a114a130a21a\x00137a54a\x0028a\x00146a224a232a252a194a107a193a58a\x00228a64a\x00142a153a51a\x00216a100a90a\x00227a78a\x00143a3a\x00\x00172a148a189a59a\x00173a132a247a70a\x00238a52a\x00125a140a226a139a36a\x00254a83a\x0079a\x00141a230a248a110a218a159a22a\x00251a63a\x0056a\x0046a\x0072a\x00120a235a151a174a199a221a102a96a\x0086a\x00219a25a\x0062a\x00122a57a\x00245a73a\x00150a211a103a205a220a97a\x00198a256a158a207a77a\x00117a127a61a\x0047a\x00136a80a\x0068a\x00212a104a128a223a197a23a\x0074a\x00147a60a\x00116a55a\x00111a144a129a105a234a119a222a'
p61
tp62
bs.